; Function Attrs: mustprogress uwtable
define noundef i32 @_ZN3zmq20stream_engine_base_t15pull_and_encodeEPNS_5msg_tE(ptr nocapture noundef nonnull readonly align 8 dereferenceable(1689) %this, ptr noundef %msg_) #0 align 2 {
entry:
  %_mechanism = getelementptr inbounds i8, ptr %this, i64 1408
  %0 = load ptr, ptr %_mechanism, align 8
  %cmp.not = icmp eq ptr %0, null
  br i1 %cmp.not, label %if.then, label %do.end

if.then:                                          ; preds = %entry
  %1 = load ptr, ptr @stderr, align 8
  %call = tail call i32 (ptr, ptr, ...) @fprintf(ptr noundef %1, ptr noundef nonnull @.str.2, ptr noundef nonnull @.str.15, ptr noundef nonnull @.str.1, i32 noundef 609) #21
  %2 = load ptr, ptr @stderr, align 8
  %call2 = tail call i32 @fflush(ptr noundef %2)
  tail call void @_ZN3zmq9zmq_abortEPKc(ptr noundef nonnull @.str.15)
  br label %do.end

do.end:                                           ; preds = %entry, %if.then
  %_session = getelementptr inbounds i8, ptr %this, i64 1672
  %3 = load ptr, ptr %_session, align 8
  %vtable = load ptr, ptr %3, align 8
  %vfn = getelementptr inbounds i8, ptr %vtable, i64 240
  %4 = load ptr, ptr %vfn, align 8
  %call3 = tail call noundef i32 %4(ptr noundef nonnull align 8 dereferenceable(1624) %3, ptr noundef %msg_)
  %cmp4 = icmp eq i32 %call3, -1
  br i1 %cmp4, label %return, label %if.end6

if.end6:                                          ; preds = %do.end
  %5 = load ptr, ptr %_mechanism, align 8
  %vtable8 = load ptr, ptr %5, align 8
  %vfn9 = getelementptr inbounds i8, ptr %vtable8, i64 32
  %6 = load ptr, ptr %vfn9, align 8
  %call10 = tail call noundef i32 %6(ptr noundef nonnull align 8 dereferenceable(1488) %5, ptr noundef %msg_)
  %cmp11 = icmp eq i32 %call10, -1
  %. = sext i1 %cmp11 to i32
  br label %return

return:                                           ; preds = %if.end6, %do.end
  %retval.0 = phi i32 [ -1, %do.end ], [ %., %if.end6 ]
  ret i32 %retval.0
}